; ModuleID = '45/1081.c'
source_filename = "45/1081.c"
target datalayout = "e-m:e-p270:32:32-p271:32:32-p272:64:64-i64:64-f80:128-n8:16:32:64-S128"
target triple = "x86_64-pc-linux-gnu"

@.str = private unnamed_addr constant [3 x i8] c"%d\00", align 1

; Function Attrs: noinline nounwind uwtable
define dso_local i32 @main() #0 {
  %1 = alloca i32, align 4
  %2 = alloca [51 x i8], align 16
  %3 = alloca [51 x i8], align 16
  %4 = alloca [51 x i8], align 16
  %5 = alloca [51 x i8], align 16
  %6 = alloca i32, align 4
  %7 = alloca i32, align 4
  %8 = alloca i32, align 4
  %9 = alloca i32, align 4
  %10 = alloca i32, align 4
  store i32 0, i32* %1, align 4
  %11 = bitcast [51 x i8]* %2 to i8*
  call void @llvm.memset.p0i8.i64(i8* align 16 %11, i8 0, i64 51, i1 false)
  %12 = bitcast [51 x i8]* %3 to i8*
  call void @llvm.memset.p0i8.i64(i8* align 16 %12, i8 0, i64 51, i1 false)
  %13 = bitcast [51 x i8]* %4 to i8*
  call void @llvm.memset.p0i8.i64(i8* align 16 %13, i8 0, i64 51, i1 false)
  %14 = bitcast [51 x i8]* %5 to i8*
  call void @llvm.memset.p0i8.i64(i8* align 16 %14, i8 0, i64 51, i1 false)
  store i32 0, i32* %8, align 4
  %15 = getelementptr inbounds [51 x i8], [51 x i8]* %2, i64 0, i64 0
  %16 = call i32 (i8*, ...) bitcast (i32 (...)* @gets to i32 (i8*, ...)*)(i8* %15)
  store i32 0, i32* %6, align 4
  br label %17

17:                                               ; preds = %30, %0
  %18 = load i32, i32* %6, align 4
  %19 = icmp slt i32 %18, 51
  br i1 %19, label %20, label %33

20:                                               ; preds = %17
  %21 = load i32, i32* %6, align 4
  %22 = sext i32 %21 to i64
  %23 = getelementptr inbounds [51 x i8], [51 x i8]* %2, i64 0, i64 %22
  %24 = load i8, i8* %23, align 1
  %25 = sext i8 %24 to i32
  %26 = icmp eq i32 %25, 32
  br i1 %26, label %27, label %29

27:                                               ; preds = %20
  %28 = load i32, i32* %6, align 4
  store i32 %28, i32* %8, align 4
  br label %33

29:                                               ; preds = %20
  br label %30

30:                                               ; preds = %29
  %31 = load i32, i32* %6, align 4
  %32 = add nsw i32 %31, 1
  store i32 %32, i32* %6, align 4
  br label %17

33:                                               ; preds = %27, %17
  store i32 0, i32* %6, align 4
  br label %34

34:                                               ; preds = %46, %33
  %35 = load i32, i32* %6, align 4
  %36 = load i32, i32* %8, align 4
  %37 = icmp slt i32 %35, %36
  br i1 %37, label %38, label %49

38:                                               ; preds = %34
  %39 = load i32, i32* %6, align 4
  %40 = sext i32 %39 to i64
  %41 = getelementptr inbounds [51 x i8], [51 x i8]* %2, i64 0, i64 %40
  %42 = load i8, i8* %41, align 1
  %43 = load i32, i32* %6, align 4
  %44 = sext i32 %43 to i64
  %45 = getelementptr inbounds [51 x i8], [51 x i8]* %3, i64 0, i64 %44
  store i8 %42, i8* %45, align 1
  br label %46

46:                                               ; preds = %38
  %47 = load i32, i32* %6, align 4
  %48 = add nsw i32 %47, 1
  store i32 %48, i32* %6, align 4
  br label %34

49:                                               ; preds = %34
  %50 = getelementptr inbounds [51 x i8], [51 x i8]* %2, i64 0, i64 0
  %51 = call i64 @strlen(i8* %50) #4
  %52 = trunc i64 %51 to i32
  store i32 %52, i32* %9, align 4
  store i32 0, i32* %6, align 4
  br label %53

53:                                               ; preds = %71, %49
  %54 = load i32, i32* %6, align 4
  %55 = load i32, i32* %9, align 4
  %56 = load i32, i32* %8, align 4
  %57 = sub nsw i32 %55, %56
  %58 = sub nsw i32 %57, 1
  %59 = icmp sle i32 %54, %58
  br i1 %59, label %60, label %74

60:                                               ; preds = %53
  %61 = load i32, i32* %6, align 4
  %62 = load i32, i32* %8, align 4
  %63 = add nsw i32 %61, %62
  %64 = add nsw i32 %63, 1
  %65 = sext i32 %64 to i64
  %66 = getelementptr inbounds [51 x i8], [51 x i8]* %2, i64 0, i64 %65
  %67 = load i8, i8* %66, align 1
  %68 = load i32, i32* %6, align 4
  %69 = sext i32 %68 to i64
  %70 = getelementptr inbounds [51 x i8], [51 x i8]* %4, i64 0, i64 %69
  store i8 %67, i8* %70, align 1
  br label %71

71:                                               ; preds = %60
  %72 = load i32, i32* %6, align 4
  %73 = add nsw i32 %72, 1
  store i32 %73, i32* %6, align 4
  br label %53

74:                                               ; preds = %53
  %75 = getelementptr inbounds [51 x i8], [51 x i8]* %4, i64 0, i64 0
  %76 = call i64 @strlen(i8* %75) #4
  %77 = trunc i64 %76 to i32
  store i32 %77, i32* %10, align 4
  store i32 0, i32* %6, align 4
  br label %78

78:                                               ; preds = %110, %74
  %79 = load i32, i32* %6, align 4
  %80 = load i32, i32* %10, align 4
  %81 = sub nsw i32 %80, 1
  %82 = icmp slt i32 %79, %81
  br i1 %82, label %83, label %113

83:                                               ; preds = %78
  store i32 0, i32* %7, align 4
  br label %84

84:                                               ; preds = %98, %83
  %85 = load i32, i32* %7, align 4
  %86 = load i32, i32* %8, align 4
  %87 = icmp slt i32 %85, %86
  br i1 %87, label %88, label %101

88:                                               ; preds = %84
  %89 = load i32, i32* %7, align 4
  %90 = load i32, i32* %6, align 4
  %91 = add nsw i32 %89, %90
  %92 = sext i32 %91 to i64
  %93 = getelementptr inbounds [51 x i8], [51 x i8]* %4, i64 0, i64 %92
  %94 = load i8, i8* %93, align 1
  %95 = load i32, i32* %7, align 4
  %96 = sext i32 %95 to i64
  %97 = getelementptr inbounds [51 x i8], [51 x i8]* %5, i64 0, i64 %96
  store i8 %94, i8* %97, align 1
  br label %98

98:                                               ; preds = %88
  %99 = load i32, i32* %7, align 4
  %100 = add nsw i32 %99, 1
  store i32 %100, i32* %7, align 4
  br label %84

101:                                              ; preds = %84
  %102 = getelementptr inbounds [51 x i8], [51 x i8]* %5, i64 0, i64 0
  %103 = getelementptr inbounds [51 x i8], [51 x i8]* %3, i64 0, i64 0
  %104 = call i32 @strcmp(i8* %102, i8* %103) #4
  %105 = icmp eq i32 %104, 0
  br i1 %105, label %106, label %109

106:                                              ; preds = %101
  %107 = load i32, i32* %6, align 4
  %108 = call i32 (i8*, ...) @printf(i8* getelementptr inbounds ([3 x i8], [3 x i8]* @.str, i64 0, i64 0), i32 %107)
  br label %113

109:                                              ; preds = %101
  br label %110

110:                                              ; preds = %109
  %111 = load i32, i32* %6, align 4
  %112 = add nsw i32 %111, 1
  store i32 %112, i32* %6, align 4
  br label %78

113:                                              ; preds = %106, %78
  ret i32 0
}

; Function Attrs: argmemonly nounwind willreturn
declare void @llvm.memset.p0i8.i64(i8* nocapture writeonly, i8, i64, i1 immarg) #1

declare dso_local i32 @gets(...) #2

; Function Attrs: nounwind readonly
declare dso_local i64 @strlen(i8*) #3

; Function Attrs: nounwind readonly
declare dso_local i32 @strcmp(i8*, i8*) #3

declare dso_local i32 @printf(i8*, ...) #2


!llvm.module.flags = !{!0}
!llvm.ident = !{!1}

!0 = !{i32 1, !"wchar_size", i32 4}
!1 = !{!"clang version 10.0.0-4ubuntu1 "}
